
./logs/test.elf:     file format elf32-littleriscv


Disassembly of section .text:

80000000 <trap_handler>:
80000000:	342022f3          	csrr	t0,mcause
80000004:	01000317          	auipc	t1,0x1000
80000008:	ffc30313          	add	t1,t1,-4 # 81000000 <rvtest_check>
8000000c:	00032383          	lw	t2,0(t1)
80000010:	00432e03          	lw	t3,4(t1)
80000014:	00832e83          	lw	t4,8(t1)
80000018:	00900313          	li	t1,9
8000001c:	04628a63          	beq	t0,t1,80000070 <next_instr>
80000020:	00800313          	li	t1,8
80000024:	04628663          	beq	t0,t1,80000070 <next_instr>
80000028:	3e038a63          	beqz	t2,8000041c <exit>
8000002c:	34102f73          	csrr	t5,mepc
80000030:	3fee1663          	bne	t3,t5,8000041c <exit>
80000034:	3fd29463          	bne	t0,t4,8000041c <exit>
80000038:	00100f13          	li	t5,1
8000003c:	03e28a63          	beq	t0,t5,80000070 <next_instr>
80000040:	00c00f13          	li	t5,12
80000044:	03e28663          	beq	t0,t5,80000070 <next_instr>

80000048 <continue_execution>:
80000048:	34102373          	csrr	t1,mepc
8000004c:	00300393          	li	t2,3
80000050:	0063f3b3          	and	t2,t2,t1
80000054:	00300e13          	li	t3,3
80000058:	01c39663          	bne	t2,t3,80000064 <not_32_bit_Instr_1>
8000005c:	00430313          	add	t1,t1,4
80000060:	0080006f          	j	80000068 <write_mepc_1>

80000064 <not_32_bit_Instr_1>:
80000064:	00230313          	add	t1,t1,2

80000068 <write_mepc_1>:
80000068:	34131073          	csrw	mepc,t1
8000006c:	30200073          	mret

80000070 <next_instr>:
80000070:	34102373          	csrr	t1,mepc
80000074:	00300393          	li	t2,3
80000078:	0063f3b3          	and	t2,t2,t1
8000007c:	00300e13          	li	t3,3
80000080:	01c39663          	bne	t2,t3,8000008c <not_32_bit_Instr_2>
80000084:	00430313          	add	t1,t1,4
80000088:	0080006f          	j	80000090 <write_mepc_2>

8000008c <not_32_bit_Instr_2>:
8000008c:	00230313          	add	t1,t1,2

80000090 <write_mepc_2>:
80000090:	34131073          	csrw	mepc,t1
80000094:	00002337          	lui	t1,0x2
80000098:	80030313          	add	t1,t1,-2048 # 1800 <trap_handler-0x7fffe800>
8000009c:	30032073          	csrs	mstatus,t1
800000a0:	30200073          	mret

800000a4 <rvtest_entry_point>:
800000a4:	fff00393          	li	t2,-1
800000a8:	3b039073          	csrw	pmpaddr0,t2
800000ac:	00f00393          	li	t2,15
800000b0:	3a039073          	csrw	pmpcfg0,t2
800000b4:	12000073          	sfence.vma
800000b8:	00000317          	auipc	t1,0x0
800000bc:	f4830313          	add	t1,t1,-184 # 80000000 <trap_handler>
800000c0:	30531073          	csrw	mtvec,t1

800000c4 <PTE_LEVEL1_SUPERVISOR>:
800000c4:	00000597          	auipc	a1,0x0
800000c8:	0e058593          	add	a1,a1,224 # 800001a4 <vm_en>
800000cc:	00058513          	mv	a0,a1
800000d0:	0cf06613          	or	a2,zero,207
800000d4:	00c5d593          	srl	a1,a1,0xc
800000d8:	00a59593          	sll	a1,a1,0xa
800000dc:	00c5e5b3          	or	a1,a1,a2
800000e0:	01401317          	auipc	t1,0x1401
800000e4:	f2030313          	add	t1,t1,-224 # 81401000 <pgtb_l1>
800000e8:	01655513          	srl	a0,a0,0x16
800000ec:	00251513          	sll	a0,a0,0x2
800000f0:	00a30333          	add	t1,t1,a0
800000f4:	00b32023          	sw	a1,0(t1)
800000f8:	01400597          	auipc	a1,0x1400
800000fc:	f0858593          	add	a1,a1,-248 # 81400000 <rvtest_data>
80000100:	00058513          	mv	a0,a1
80000104:	0ce06613          	or	a2,zero,206
80000108:	00c5d593          	srl	a1,a1,0xc
8000010c:	00a59593          	sll	a1,a1,0xa
80000110:	00c5e5b3          	or	a1,a1,a2
80000114:	01401317          	auipc	t1,0x1401
80000118:	eec30313          	add	t1,t1,-276 # 81401000 <pgtb_l1>
8000011c:	01655513          	srl	a0,a0,0x16
80000120:	00251513          	sll	a0,a0,0x2
80000124:	00a30333          	add	t1,t1,a0
80000128:	00b32023          	sw	a1,0(t1)
8000012c:	01000597          	auipc	a1,0x1000
80000130:	ed458593          	add	a1,a1,-300 # 81000000 <rvtest_check>
80000134:	00058513          	mv	a0,a1
80000138:	0c706613          	or	a2,zero,199
8000013c:	00c5d593          	srl	a1,a1,0xc
80000140:	00a59593          	sll	a1,a1,0xa
80000144:	00c5e5b3          	or	a1,a1,a2
80000148:	01401317          	auipc	t1,0x1401
8000014c:	eb830313          	add	t1,t1,-328 # 81401000 <pgtb_l1>
80000150:	01655513          	srl	a0,a0,0x16
80000154:	00251513          	sll	a0,a0,0x2
80000158:	00a30333          	add	t1,t1,a0
8000015c:	00b32023          	sw	a1,0(t1)
80000160:	01401f97          	auipc	t6,0x1401
80000164:	ea0f8f93          	add	t6,t6,-352 # 81401000 <pgtb_l1>
80000168:	80000f37          	lui	t5,0x80000
8000016c:	00cfdf93          	srl	t6,t6,0xc
80000170:	01efefb3          	or	t6,t6,t5
80000174:	180f9073          	csrw	satp,t6
80000178:	12000073          	sfence.vma
8000017c:	00000597          	auipc	a1,0x0
80000180:	02858593          	add	a1,a1,40 # 800001a4 <vm_en>
80000184:	000022b7          	lui	t0,0x2
80000188:	80028293          	add	t0,t0,-2048 # 1800 <trap_handler-0x7fffe800>
8000018c:	3002b073          	csrc	mstatus,t0
80000190:	00001337          	lui	t1,0x1
80000194:	80030313          	add	t1,t1,-2048 # 800 <trap_handler-0x7ffff800>
80000198:	30032073          	csrs	mstatus,t1
8000019c:	34159073          	csrw	mepc,a1
800001a0:	30200073          	mret

800001a4 <vm_en>:
800001a4:	00a00313          	li	t1,10

800001a8 <pre_load>:
800001a8:	01000317          	auipc	t1,0x1000
800001ac:	e5830313          	add	t1,t1,-424 # 81000000 <rvtest_check>
800001b0:	00000397          	auipc	t2,0x0
800001b4:	02438393          	add	t2,t2,36 # 800001d4 <check_load>
800001b8:	00d00e13          	li	t3,13
800001bc:	00100e93          	li	t4,1
800001c0:	01d32023          	sw	t4,0(t1)
800001c4:	00732223          	sw	t2,4(t1)
800001c8:	01c32423          	sw	t3,8(t1)
800001cc:	01400597          	auipc	a1,0x1400
800001d0:	e3458593          	add	a1,a1,-460 # 81400000 <rvtest_data>

800001d4 <check_load>:
800001d4:	0005a303          	lw	t1,0(a1)
800001d8:	00000013          	nop

800001dc <pre_store>:
800001dc:	01000317          	auipc	t1,0x1000
800001e0:	e2430313          	add	t1,t1,-476 # 81000000 <rvtest_check>
800001e4:	00000397          	auipc	t2,0x0
800001e8:	02438393          	add	t2,t2,36 # 80000208 <check_store>
800001ec:	00f00e13          	li	t3,15
800001f0:	00100e93          	li	t4,1
800001f4:	01d32023          	sw	t4,0(t1)
800001f8:	00732223          	sw	t2,4(t1)
800001fc:	01c32423          	sw	t3,8(t1)
80000200:	01400597          	auipc	a1,0x1400
80000204:	e0058593          	add	a1,a1,-512 # 81400000 <rvtest_data>

80000208 <check_store>:
80000208:	0065a023          	sw	t1,0(a1)
8000020c:	00000013          	nop
80000210:	00000073          	ecall

80000214 <pre_execute>:
80000214:	01000317          	auipc	t1,0x1000
80000218:	dec30313          	add	t1,t1,-532 # 81000000 <rvtest_check>
8000021c:	00000397          	auipc	t2,0x0
80000220:	11438393          	add	t2,t2,276 # 80000330 <check_execute>
80000224:	00c00e13          	li	t3,12
80000228:	00100e93          	li	t4,1
8000022c:	01d32023          	sw	t4,0(t1)
80000230:	00732223          	sw	t2,4(t1)
80000234:	01c32423          	sw	t3,8(t1)
80000238:	01400597          	auipc	a1,0x1400
8000023c:	dc858593          	add	a1,a1,-568 # 81400000 <rvtest_data>
80000240:	00c5a303          	lw	t1,12(a1)
80000244:	08031063          	bnez	t1,800002c4 <PTE_LEVEL1_USER_EXECUTE>
80000248:	01d5a623          	sw	t4,12(a1)

8000024c <PTE_LEVEL1_SUPERVISOR_EXECUTE>:
8000024c:	00000597          	auipc	a1,0x0
80000250:	0e458593          	add	a1,a1,228 # 80000330 <check_execute>
80000254:	00058513          	mv	a0,a1
80000258:	0ce06613          	or	a2,zero,206
8000025c:	00c5d593          	srl	a1,a1,0xc
80000260:	00a59593          	sll	a1,a1,0xa
80000264:	00c5e5b3          	or	a1,a1,a2
80000268:	01401317          	auipc	t1,0x1401
8000026c:	d9830313          	add	t1,t1,-616 # 81401000 <pgtb_l1>
80000270:	01655513          	srl	a0,a0,0x16
80000274:	00251513          	sll	a0,a0,0x2
80000278:	00a30333          	add	t1,t1,a0
8000027c:	00b32023          	sw	a1,0(t1)
80000280:	01401f97          	auipc	t6,0x1401
80000284:	d80f8f93          	add	t6,t6,-640 # 81401000 <pgtb_l1>
80000288:	80000f37          	lui	t5,0x80000
8000028c:	00cfdf93          	srl	t6,t6,0xc
80000290:	01efefb3          	or	t6,t6,t5
80000294:	180f9073          	csrw	satp,t6
80000298:	12000073          	sfence.vma
8000029c:	00000597          	auipc	a1,0x0
800002a0:	09458593          	add	a1,a1,148 # 80000330 <check_execute>
800002a4:	000022b7          	lui	t0,0x2
800002a8:	80028293          	add	t0,t0,-2048 # 1800 <trap_handler-0x7fffe800>
800002ac:	3002b073          	csrc	mstatus,t0
800002b0:	00001337          	lui	t1,0x1
800002b4:	80030313          	add	t1,t1,-2048 # 800 <trap_handler-0x7ffff800>
800002b8:	30032073          	csrs	mstatus,t1
800002bc:	34159073          	csrw	mepc,a1
800002c0:	30200073          	mret

800002c4 <PTE_LEVEL1_USER_EXECUTE>:
800002c4:	00000597          	auipc	a1,0x0
800002c8:	06c58593          	add	a1,a1,108 # 80000330 <check_execute>
800002cc:	00058513          	mv	a0,a1
800002d0:	0de06613          	or	a2,zero,222
800002d4:	00c5d593          	srl	a1,a1,0xc
800002d8:	00a59593          	sll	a1,a1,0xa
800002dc:	00c5e5b3          	or	a1,a1,a2
800002e0:	01401317          	auipc	t1,0x1401
800002e4:	d2030313          	add	t1,t1,-736 # 81401000 <pgtb_l1>
800002e8:	01655513          	srl	a0,a0,0x16
800002ec:	00251513          	sll	a0,a0,0x2
800002f0:	00a30333          	add	t1,t1,a0
800002f4:	00b32023          	sw	a1,0(t1)
800002f8:	01401f97          	auipc	t6,0x1401
800002fc:	d08f8f93          	add	t6,t6,-760 # 81401000 <pgtb_l1>
80000300:	80000f37          	lui	t5,0x80000
80000304:	00cfdf93          	srl	t6,t6,0xc
80000308:	01efefb3          	or	t6,t6,t5
8000030c:	180f9073          	csrw	satp,t6
80000310:	12000073          	sfence.vma
80000314:	00000597          	auipc	a1,0x0
80000318:	01c58593          	add	a1,a1,28 # 80000330 <check_execute>
8000031c:	000022b7          	lui	t0,0x2
80000320:	80028293          	add	t0,t0,-2048 # 1800 <trap_handler-0x7fffe800>
80000324:	3002b073          	csrc	mstatus,t0
80000328:	34159073          	csrw	mepc,a1
8000032c:	30200073          	mret

80000330 <check_execute>:
80000330:	04500313          	li	t1,69
80000334:	01400597          	auipc	a1,0x1400
80000338:	ccc58593          	add	a1,a1,-820 # 81400000 <rvtest_data>
8000033c:	0085a303          	lw	t1,8(a1)
80000340:	0c031e63          	bnez	t1,8000041c <exit>
80000344:	01d5a423          	sw	t4,8(a1)

80000348 <PTE_LEVEL1_USER>:
80000348:	00000597          	auipc	a1,0x0
8000034c:	e5c58593          	add	a1,a1,-420 # 800001a4 <vm_en>
80000350:	00058513          	mv	a0,a1
80000354:	0df06613          	or	a2,zero,223
80000358:	00c5d593          	srl	a1,a1,0xc
8000035c:	00a59593          	sll	a1,a1,0xa
80000360:	00c5e5b3          	or	a1,a1,a2
80000364:	01401317          	auipc	t1,0x1401
80000368:	c9c30313          	add	t1,t1,-868 # 81401000 <pgtb_l1>
8000036c:	01655513          	srl	a0,a0,0x16
80000370:	00251513          	sll	a0,a0,0x2
80000374:	00a30333          	add	t1,t1,a0
80000378:	00b32023          	sw	a1,0(t1)
8000037c:	01400597          	auipc	a1,0x1400
80000380:	c8458593          	add	a1,a1,-892 # 81400000 <rvtest_data>
80000384:	00058513          	mv	a0,a1
80000388:	0de06613          	or	a2,zero,222
8000038c:	00c5d593          	srl	a1,a1,0xc
80000390:	00a59593          	sll	a1,a1,0xa
80000394:	00c5e5b3          	or	a1,a1,a2
80000398:	01401317          	auipc	t1,0x1401
8000039c:	c6830313          	add	t1,t1,-920 # 81401000 <pgtb_l1>
800003a0:	01655513          	srl	a0,a0,0x16
800003a4:	00251513          	sll	a0,a0,0x2
800003a8:	00a30333          	add	t1,t1,a0
800003ac:	00b32023          	sw	a1,0(t1)
800003b0:	01000597          	auipc	a1,0x1000
800003b4:	c5058593          	add	a1,a1,-944 # 81000000 <rvtest_check>
800003b8:	00058513          	mv	a0,a1
800003bc:	0df06613          	or	a2,zero,223
800003c0:	00c5d593          	srl	a1,a1,0xc
800003c4:	00a59593          	sll	a1,a1,0xa
800003c8:	00c5e5b3          	or	a1,a1,a2
800003cc:	01401317          	auipc	t1,0x1401
800003d0:	c3430313          	add	t1,t1,-972 # 81401000 <pgtb_l1>
800003d4:	01655513          	srl	a0,a0,0x16
800003d8:	00251513          	sll	a0,a0,0x2
800003dc:	00a30333          	add	t1,t1,a0
800003e0:	00b32023          	sw	a1,0(t1)
800003e4:	01401f97          	auipc	t6,0x1401
800003e8:	c1cf8f93          	add	t6,t6,-996 # 81401000 <pgtb_l1>
800003ec:	80000f37          	lui	t5,0x80000
800003f0:	00cfdf93          	srl	t6,t6,0xc
800003f4:	01efefb3          	or	t6,t6,t5
800003f8:	180f9073          	csrw	satp,t6
800003fc:	12000073          	sfence.vma
80000400:	00000597          	auipc	a1,0x0
80000404:	da458593          	add	a1,a1,-604 # 800001a4 <vm_en>
80000408:	000022b7          	lui	t0,0x2
8000040c:	80028293          	add	t0,t0,-2048 # 1800 <trap_handler-0x7fffe800>
80000410:	3002b073          	csrc	mstatus,t0
80000414:	34159073          	csrw	mepc,a1
80000418:	30200073          	mret

8000041c <exit>:
8000041c:	01403297          	auipc	t0,0x1403
80000420:	be428293          	add	t0,t0,-1052 # 81403000 <tohost>
80000424:	00100313          	li	t1,1
80000428:	0062a023          	sw	t1,0(t0)
8000042c:	ff1ff06f          	j	8000041c <exit>
